target datalayout = "e-m:e-p270:32:32-p271:32:32-p272:64:64-i64:64-i128:128-f80:128-n8:16:32:64-S128"
target triple = "x86_64-pc-linux-gnu"

%struct.OptionsContext = type { ptr, i64, i64, i32, ptr, %struct.SpecifierOptList, %struct.SpecifierOptList, %struct.SpecifierOptList, %struct.SpecifierOptList, %struct.SpecifierOptList, %struct.SpecifierOptList, %struct.SpecifierOptList, %struct.SpecifierOptList, i64, i32, i32, float, float, double, i32, i32, i32, i32, %struct.SpecifierOptList, %struct.SpecifierOptList, %struct.SpecifierOptList, %struct.SpecifierOptList, %struct.SpecifierOptList, %struct.SpecifierOptList, %struct.SpecifierOptList, ptr, i32, ptr, i32, i32, i64, i64, i64, float, float, float, i32, i32, i32, i32, i32, i32, ptr, %struct.SpecifierOptList, %struct.SpecifierOptList, %struct.SpecifierOptList, %struct.SpecifierOptList, %struct.SpecifierOptList, %struct.SpecifierOptList, %struct.SpecifierOptList, %struct.SpecifierOptList, %struct.SpecifierOptList, %struct.SpecifierOptList, %struct.SpecifierOptList, %struct.SpecifierOptList, %struct.SpecifierOptList, %struct.SpecifierOptList, %struct.SpecifierOptList, %struct.SpecifierOptList, %struct.SpecifierOptList, %struct.SpecifierOptList, %struct.SpecifierOptList, %struct.SpecifierOptList, %struct.SpecifierOptList, %struct.SpecifierOptList, %struct.SpecifierOptList, %struct.SpecifierOptList, %struct.SpecifierOptList, %struct.SpecifierOptList, %struct.SpecifierOptList, %struct.SpecifierOptList, %struct.SpecifierOptList, %struct.SpecifierOptList, %struct.SpecifierOptList, %struct.SpecifierOptList, %struct.SpecifierOptList, %struct.SpecifierOptList, %struct.SpecifierOptList, %struct.SpecifierOptList, %struct.SpecifierOptList, %struct.SpecifierOptList, %struct.SpecifierOptList, %struct.SpecifierOptList, %struct.SpecifierOptList, %struct.SpecifierOptList, %struct.SpecifierOptList, %struct.SpecifierOptList, %struct.SpecifierOptList, %struct.SpecifierOptList, %struct.SpecifierOptList, %struct.SpecifierOptList, %struct.SpecifierOptList }
%struct.SpecifierOptList = type { ptr, i32, ptr, i32 }
%struct.Muxer = type { %struct.OutputFile, [32 x i8], ptr, ptr, i32, ptr, i32, ptr, ptr, i64, i64, i32, ptr, ptr }
%struct.OutputFile = type { ptr, i32, ptr, ptr, i32, i64, i64, i32 }
%struct.OutputStream = type { ptr, i32, ptr, i32, ptr, ptr, ptr, i32, i32, i32, %struct.AVRational, %struct.KeyframeForceCtx, ptr, ptr, ptr, ptr, ptr, i64, i32, %struct.EncStats, %struct.EncStats, i32 }
%struct.AVRational = type { i32, i32 }
%struct.KeyframeForceCtx = type { i32, i64, ptr, i32, i32, ptr, [5 x double], i32 }
%struct.EncStats = type { ptr, i32, ptr, %union.pthread_mutex_t, i32 }
%union.pthread_mutex_t = type { %struct.__pthread_mutex_s }
%struct.__pthread_mutex_s = type { i32, i32, i32, i32, i32, i16, i16, %struct.__pthread_internal_list }
%struct.__pthread_internal_list = type { ptr, ptr }
%struct.MuxStream = type { %struct.OutputStream, ptr, [32 x i8], ptr, ptr, ptr, %struct.EncStats, i32, i32, i32, i32, i64, i64, i64, i64, %struct.AVRational, i64, i64, i32, i32, i32, i32, %struct.AVRational, %struct.AVRational, i32, ptr }
%struct.Encoder = type { ptr, ptr, i64, i64 }
%struct.AVCodecContext = type { ptr, i32, i32, ptr, i32, i32, ptr, ptr, ptr, i64, i32, i32, ptr, i32, %struct.AVRational, %struct.AVRational, %struct.AVRational, i32, i32, i32, i32, i32, %struct.AVRational, i32, i32, i32, i32, i32, i32, i32, i32, i32, i32, i32, ptr, ptr, i32, float, float, float, float, float, float, float, float, float, i32, i32, i32, i32, i32, i32, i32, i32, i32, i32, i32, i32, ptr, ptr, ptr, i32, i32, i32, i32, i32, i32, i32, i32, i32, i32, %struct.AVChannelLayout, i32, i32, i32, i32, i32, i32, i32, i32, ptr, i32, i32, i32, float, float, i32, i32, i32, i32, i32, ptr, i64, i64, float, float, i32, i32, ptr, ptr, i32, i32, i32, i32, i32, ptr, ptr, ptr, ptr, i32, i32, [8 x i64], i32, i32, i32, i32, i32, i32, i32, ptr, ptr, i32, i32, i32, i32, i32, i32, i32, i32, i32, i32, ptr, ptr, i32, i32, ptr, ptr, ptr, ptr, i32, i32, i64, i32, i32, i64, ptr, i64, ptr, i32, ptr, i32 }
%struct.AVChannelLayout = type { i32, i32, %union.anon, ptr }
%union.anon = type { i64 }

@.str.119 = private unnamed_addr constant [28 x i8] c"Unknown channel layout: %s\0A\00", align 1
@.str.120 = private unnamed_addr constant [28 x i8] c"Invalid sample format '%s'\0A\00", align 1

; Function Attrs: inlinehint nounwind uwtable
define internal ptr @ms_from_ost(ptr noundef %0) #4 {
  %2 = alloca ptr, align 8
  store ptr %0, ptr %2, align 8, !tbaa !95
  %3 = load ptr, ptr %2, align 8, !tbaa !95
  ret ptr %3
}

; Function Attrs: nounwind uwtable
define internal i32 @new_stream_audio(ptr noundef %0, ptr noundef %1, ptr noundef %2) #0 {
  %4 = alloca i32, align 4
  %5 = alloca ptr, align 8
  %6 = alloca ptr, align 8
  %7 = alloca ptr, align 8
  %8 = alloca ptr, align 8
  %9 = alloca ptr, align 8
  %10 = alloca ptr, align 8
  %11 = alloca ptr, align 8
  %12 = alloca i32, align 4
  %13 = alloca ptr, align 8
  %14 = alloca ptr, align 8
  %15 = alloca i32, align 4
  store ptr %0, ptr %5, align 8, !tbaa !34
  store ptr %1, ptr %6, align 8, !tbaa !13
  store ptr %2, ptr %7, align 8, !tbaa !95
  call void @llvm.lifetime.start.p0(i64 8, ptr %8) #12
  %16 = load ptr, ptr %7, align 8, !tbaa !95
  %17 = call ptr @ms_from_ost(ptr noundef %16)
  store ptr %17, ptr %8, align 8, !tbaa !147
  call void @llvm.lifetime.start.p0(i64 8, ptr %9) #12
  %18 = load ptr, ptr %5, align 8, !tbaa !34
  %19 = getelementptr inbounds nuw %struct.Muxer, ptr %18, i32 0, i32 2
  %20 = load ptr, ptr %19, align 8, !tbaa !58
  store ptr %20, ptr %9, align 8, !tbaa !57
  call void @llvm.lifetime.start.p0(i64 8, ptr %10) #12
  %21 = load ptr, ptr %7, align 8, !tbaa !95
  %22 = getelementptr inbounds nuw %struct.OutputStream, ptr %21, i32 0, i32 5
  %23 = load ptr, ptr %22, align 8, !tbaa !190
  store ptr %23, ptr %10, align 8, !tbaa !212
  %24 = load ptr, ptr %7, align 8, !tbaa !95
  %25 = getelementptr inbounds nuw %struct.OutputStream, ptr %24, i32 0, i32 6
  %26 = load ptr, ptr %25, align 8, !tbaa !97
  %27 = icmp ne ptr %26, null
  br i1 %27, label %28, label %101

28:                                               ; preds = %3
  call void @llvm.lifetime.start.p0(i64 8, ptr %11) #12
  %29 = load ptr, ptr %7, align 8, !tbaa !95
  %30 = getelementptr inbounds nuw %struct.OutputStream, ptr %29, i32 0, i32 6
  %31 = load ptr, ptr %30, align 8, !tbaa !97
  %32 = getelementptr inbounds nuw %struct.Encoder, ptr %31, i32 0, i32 1
  %33 = load ptr, ptr %32, align 8, !tbaa !231
  store ptr %33, ptr %11, align 8, !tbaa !368
  call void @llvm.lifetime.start.p0(i64 4, ptr %12) #12
  store i32 0, ptr %12, align 4, !tbaa !4
  call void @llvm.lifetime.start.p0(i64 8, ptr %13) #12
  store ptr null, ptr %13, align 8, !tbaa !15
  call void @llvm.lifetime.start.p0(i64 8, ptr %14) #12
  store ptr null, ptr %14, align 8, !tbaa !15
  %34 = load ptr, ptr %7, align 8, !tbaa !95
  %35 = load ptr, ptr %6, align 8, !tbaa !13
  %36 = getelementptr inbounds nuw %struct.OptionsContext, ptr %35, i32 0, i32 7
  %37 = load ptr, ptr %9, align 8, !tbaa !57
  %38 = load ptr, ptr %10, align 8, !tbaa !212
  call void @opt_match_per_stream_int(ptr noundef %34, ptr noundef %36, ptr noundef %37, ptr noundef %38, ptr noundef %12)
  %39 = load i32, ptr %12, align 4, !tbaa !4
  %40 = icmp ne i32 %39, 0
  br i1 %40, label %41, label %49

41:                                               ; preds = %28
  %42 = load ptr, ptr %11, align 8, !tbaa !368
  %43 = getelementptr inbounds nuw %struct.AVCodecContext, ptr %42, i32 0, i32 71
  %44 = getelementptr inbounds nuw %struct.AVChannelLayout, ptr %43, i32 0, i32 0
  store i32 0, ptr %44, align 8, !tbaa !394
  %45 = load i32, ptr %12, align 4, !tbaa !4
  %46 = load ptr, ptr %11, align 8, !tbaa !368
  %47 = getelementptr inbounds nuw %struct.AVCodecContext, ptr %46, i32 0, i32 71
  %48 = getelementptr inbounds nuw %struct.AVChannelLayout, ptr %47, i32 0, i32 1
  store i32 %45, ptr %48, align 4, !tbaa !395
  br label %49

49:                                               ; preds = %41, %28
  %50 = load ptr, ptr %7, align 8, !tbaa !95
  %51 = load ptr, ptr %6, align 8, !tbaa !13
  %52 = getelementptr inbounds nuw %struct.OptionsContext, ptr %51, i32 0, i32 6
  %53 = load ptr, ptr %9, align 8, !tbaa !57
  %54 = load ptr, ptr %10, align 8, !tbaa !212
  call void @opt_match_per_stream_str(ptr noundef %50, ptr noundef %52, ptr noundef %53, ptr noundef %54, ptr noundef %13)
  %55 = load ptr, ptr %13, align 8, !tbaa !15
  %56 = icmp ne ptr %55, null
  br i1 %56, label %57, label %66

57:                                               ; preds = %49
  %58 = load ptr, ptr %11, align 8, !tbaa !368
  %59 = getelementptr inbounds nuw %struct.AVCodecContext, ptr %58, i32 0, i32 71
  %60 = load ptr, ptr %13, align 8, !tbaa !15
  %61 = call i32 @av_channel_layout_from_string(ptr noundef %59, ptr noundef %60)
  %62 = icmp slt i32 %61, 0
  br i1 %62, label %63, label %66

63:                                               ; preds = %57
  %64 = load ptr, ptr %7, align 8, !tbaa !95
  %65 = load ptr, ptr %13, align 8, !tbaa !15
  call void (ptr, i32, ptr, ...) @av_log(ptr noundef %64, i32 noundef 8, ptr noundef @.str.119, ptr noundef %65)
  store i32 -22, ptr %4, align 4
  store i32 1, ptr %15, align 4
  br label %98

66:                                               ; preds = %57, %49
  %67 = load ptr, ptr %7, align 8, !tbaa !95
  %68 = load ptr, ptr %6, align 8, !tbaa !13
  %69 = getelementptr inbounds nuw %struct.OptionsContext, ptr %68, i32 0, i32 52
  %70 = load ptr, ptr %9, align 8, !tbaa !57
  %71 = load ptr, ptr %10, align 8, !tbaa !212
  call void @opt_match_per_stream_str(ptr noundef %67, ptr noundef %69, ptr noundef %70, ptr noundef %71, ptr noundef %14)
  %72 = load ptr, ptr %14, align 8, !tbaa !15
  %73 = icmp ne ptr %72, null
  br i1 %73, label %74, label %83

74:                                               ; preds = %66
  %75 = load ptr, ptr %14, align 8, !tbaa !15
  %76 = call i32 @av_get_sample_fmt(ptr noundef %75)
  %77 = load ptr, ptr %11, align 8, !tbaa !368
  %78 = getelementptr inbounds nuw %struct.AVCodecContext, ptr %77, i32 0, i32 70
  store i32 %76, ptr %78, align 4, !tbaa !396
  %79 = icmp eq i32 %76, -1
  br i1 %79, label %80, label %83

80:                                               ; preds = %74
  %81 = load ptr, ptr %7, align 8, !tbaa !95
  %82 = load ptr, ptr %14, align 8, !tbaa !15
  call void (ptr, i32, ptr, ...) @av_log(ptr noundef %81, i32 noundef 8, ptr noundef @.str.120, ptr noundef %82)
  store i32 -22, ptr %4, align 4
  store i32 1, ptr %15, align 4
  br label %98

83:                                               ; preds = %74, %66
  %84 = load ptr, ptr %7, align 8, !tbaa !95
  %85 = load ptr, ptr %6, align 8, !tbaa !13
  %86 = getelementptr inbounds nuw %struct.OptionsContext, ptr %85, i32 0, i32 8
  %87 = load ptr, ptr %9, align 8, !tbaa !57
  %88 = load ptr, ptr %10, align 8, !tbaa !212
  %89 = load ptr, ptr %11, align 8, !tbaa !368
  %90 = getelementptr inbounds nuw %struct.AVCodecContext, ptr %89, i32 0, i32 69
  call void @opt_match_per_stream_int(ptr noundef %84, ptr noundef %86, ptr noundef %87, ptr noundef %88, ptr noundef %90)
  %91 = load ptr, ptr %7, align 8, !tbaa !95
  %92 = load ptr, ptr %6, align 8, !tbaa !13
  %93 = getelementptr inbounds nuw %struct.OptionsContext, ptr %92, i32 0, i32 82
  %94 = load ptr, ptr %9, align 8, !tbaa !57
  %95 = load ptr, ptr %10, align 8, !tbaa !212
  %96 = load ptr, ptr %8, align 8, !tbaa !147
  %97 = getelementptr inbounds nuw %struct.MuxStream, ptr %96, i32 0, i32 25
  call void @opt_match_per_stream_str(ptr noundef %91, ptr noundef %93, ptr noundef %94, ptr noundef %95, ptr noundef %97)
  store i32 0, ptr %15, align 4
  br label %98

98:                                               ; preds = %83, %80, %63
  call void @llvm.lifetime.end.p0(i64 8, ptr %14) #12
  call void @llvm.lifetime.end.p0(i64 8, ptr %13) #12
  call void @llvm.lifetime.end.p0(i64 4, ptr %12) #12
  call void @llvm.lifetime.end.p0(i64 8, ptr %11) #12
  %99 = load i32, ptr %15, align 4
  switch i32 %99, label %102 [
    i32 0, label %100
  ]

100:                                              ; preds = %98
  br label %101

101:                                              ; preds = %100, %3
  store i32 0, ptr %4, align 4
  store i32 1, ptr %15, align 4
  br label %102

102:                                              ; preds = %101, %98
  call void @llvm.lifetime.end.p0(i64 8, ptr %10) #12
  call void @llvm.lifetime.end.p0(i64 8, ptr %9) #12
  call void @llvm.lifetime.end.p0(i64 8, ptr %8) #12
  %103 = load i32, ptr %4, align 4
  ret i32 %103
}