; Function Attrs: nounwind uwtable
define internal fastcc range(i32 -22, 1) i32 @new_stream_audio(ptr %.96.val, ptr noundef %0, ptr noundef nonnull %1) unnamed_addr #0 {
  %3 = alloca i32, align 4
  %4 = alloca ptr, align 8
  %5 = alloca ptr, align 8
  %6 = getelementptr inbounds nuw i8, ptr %1, i64 40
  %7 = load ptr, ptr %6, align 8, !tbaa !158
  %8 = getelementptr inbounds nuw i8, ptr %1, i64 48
  %9 = load ptr, ptr %8, align 8, !tbaa !293
  %.not = icmp eq ptr %9, null
  br i1 %.not, label %38, label %10

10:                                               ; preds = %2
  %11 = getelementptr inbounds nuw i8, ptr %9, i64 8
  %12 = load ptr, ptr %11, align 8, !tbaa !321
  call void @llvm.lifetime.start.p0(i64 4, ptr nonnull %3) #16
  store i32 0, ptr %3, align 4, !tbaa !4
  call void @llvm.lifetime.start.p0(i64 8, ptr nonnull %4) #16
  store ptr null, ptr %4, align 8, !tbaa !139
  call void @llvm.lifetime.start.p0(i64 8, ptr nonnull %5) #16
  store ptr null, ptr %5, align 8, !tbaa !139
  %13 = getelementptr inbounds nuw i8, ptr %0, i64 104
  call void @opt_match_per_stream_int(ptr noundef nonnull %1, ptr noundef nonnull %13, ptr noundef %.96.val, ptr noundef %7, ptr noundef nonnull %3) #16
  %14 = load i32, ptr %3, align 4, !tbaa !4
  %.not38 = icmp eq i32 %14, 0
  br i1 %.not38, label %18, label %15

15:                                               ; preds = %10
  %16 = getelementptr inbounds nuw i8, ptr %12, i64 352
  store i32 0, ptr %16, align 8, !tbaa !450
  %17 = getelementptr inbounds nuw i8, ptr %12, i64 356
  store i32 %14, ptr %17, align 4, !tbaa !451
  br label %18

18:                                               ; preds = %15, %10
  %19 = getelementptr inbounds nuw i8, ptr %0, i64 72
  call void @opt_match_per_stream_str(ptr noundef nonnull %1, ptr noundef nonnull %19, ptr noundef %.96.val, ptr noundef %7, ptr noundef nonnull %4) #16
  %20 = load ptr, ptr %4, align 8, !tbaa !139
  %.not39 = icmp eq ptr %20, null
  br i1 %.not39, label %25, label %21

21:                                               ; preds = %18
  %22 = getelementptr inbounds nuw i8, ptr %12, i64 352
  %23 = call i32 @av_channel_layout_from_string(ptr noundef nonnull %22, ptr noundef nonnull %20) #16
  %24 = icmp slt i32 %23, 0
  br i1 %24, label %.critedge, label %25

25:                                               ; preds = %21, %18
  %26 = getelementptr inbounds nuw i8, ptr %0, i64 800
  call void @opt_match_per_stream_str(ptr noundef nonnull %1, ptr noundef nonnull %26, ptr noundef %.96.val, ptr noundef %7, ptr noundef nonnull %5) #16
  %27 = load ptr, ptr %5, align 8, !tbaa !139
  %.not40 = icmp eq ptr %27, null
  br i1 %.not40, label %32, label %28

28:                                               ; preds = %25
  %29 = call i32 @av_get_sample_fmt(ptr noundef nonnull %27) #16
  %30 = getelementptr inbounds nuw i8, ptr %12, i64 348
  store i32 %29, ptr %30, align 4, !tbaa !452
  %31 = icmp eq i32 %29, -1
  br i1 %31, label %.critedge, label %32

32:                                               ; preds = %28, %25
  %33 = getelementptr inbounds nuw i8, ptr %0, i64 136
  %34 = getelementptr inbounds nuw i8, ptr %12, i64 344
  call void @opt_match_per_stream_int(ptr noundef nonnull %1, ptr noundef nonnull %33, ptr noundef %.96.val, ptr noundef %7, ptr noundef nonnull %34) #16
  %35 = getelementptr inbounds nuw i8, ptr %0, i64 1760
  %36 = getelementptr inbounds nuw i8, ptr %1, i64 624
  call void @opt_match_per_stream_str(ptr noundef nonnull %1, ptr noundef nonnull %35, ptr noundef %.96.val, ptr noundef %7, ptr noundef nonnull %36) #16
  br label %.sink.split

.critedge:                                        ; preds = %28, %21
  %.sink1 = phi ptr [ %4, %21 ], [ %5, %28 ]
  %.str.120.sink = phi ptr [ @.str.119, %21 ], [ @.str.120, %28 ]
  %37 = load ptr, ptr %.sink1, align 8, !tbaa !139
  call void (ptr, i32, ptr, ...) @av_log(ptr noundef nonnull %1, i32 noundef 8, ptr noundef nonnull %.str.120.sink, ptr noundef %37) #16
  br label %.sink.split

.sink.split:                                      ; preds = %.critedge, %32
  %.1.ph = phi i32 [ 0, %32 ], [ -22, %.critedge ]
  call void @llvm.lifetime.end.p0(i64 8, ptr nonnull %5) #16
  call void @llvm.lifetime.end.p0(i64 8, ptr nonnull %4) #16
  call void @llvm.lifetime.end.p0(i64 4, ptr nonnull %3) #16
  br label %38

38:                                               ; preds = %.sink.split, %2
  %.1 = phi i32 [ 0, %2 ], [ %.1.ph, %.sink.split ]
  ret i32 %.1
}